target datalayout = "e-m:e-p270:32:32-p271:32:32-p272:64:64-i64:64-i128:128-f80:128-n8:16:32:64-S128"
target triple = "x86_64-pc-linux-gnu"

%union.SourceSpan = type { i64 }
%struct.Signature_ = type <{ %struct.CalleeAttributes, i16, i8, i32, i32, [4 x i8], ptr }>
%struct.CalleeAttributes = type { i8 }
%struct.Decl_ = type { ptr, ptr, %union.SourceSpan, i64, %union.anon, i32, %union.anon.0, i64, ptr, ptr, ptr, %union.anon.1 }
%union.anon = type { ptr }
%union.anon.0 = type { i16 }
%union.anon.1 = type { %struct.FuncDecl }
%struct.FuncDecl = type { i32, [4 x i8], %struct.Signature_, i32, i32, %union.anon.8 }
%union.anon.8 = type { %struct.anon.9 }
%struct.anon.9 = type { i16, %union.anon.10 }
%union.anon.10 = type { ptr }
%struct.VHeader_ = type { i32, i32, [0 x i8] }
%struct.Type_ = type { i32, ptr, ptr, ptr, %union.anon.85, ptr, ptr, %union.anon.87 }
%union.anon.85 = type { ptr }
%union.anon.87 = type { %struct.TypeFunction }
%struct.TypeFunction = type { ptr, ptr, ptr }
%struct.Expr_ = type { ptr, %union.SourceSpan, i16, %union.anon.29 }
%union.anon.29 = type { %struct.ExprAnySwitch }
%struct.ExprAnySwitch = type { i8, %union.anon.31 }
%union.anon.31 = type { %struct.anon.32 }
%struct.anon.32 = type { ptr, %union.SourceSpan, ptr }
%struct.Attr = type { ptr, ptr, %union.SourceSpan, i16, ptr }
%struct.ExprConst = type { i16, %union.anon.38 }
%union.anon.38 = type { %struct.Int }
%struct.Int = type { %struct.Int128_, i32 }
%struct.Int128_ = type { i64, i64 }

@.str = private unnamed_addr constant [31 x i8] c"Expected an argument to '@if'.\00", align 1
@type_bool = external global ptr, align 8
@.str.1 = private unnamed_addr constant [33 x i8] c"Expected a boolean value not %s.\00", align 1
@.str.2 = private unnamed_addr constant [36 x i8] c"FATAL ERROR %s -> in %s @ in %s:%d \00", align 1
@.str.3 = private unnamed_addr constant [22 x i8] c"Should be unreachable\00", align 1
@__func__.sema_decl_if_cond = private unnamed_addr constant [18 x i8] c"sema_decl_if_cond\00", align 1
@.str.4 = private unnamed_addr constant [111 x i8] c"generated/home/dtcxzyw/WorkSpace/Projects/compilers/llvm-opt-benchmark/bench/c3c/c3c/src/compiler/sema_decls.c\00", align 1

; Function Attrs: nounwind uwtable
define dso_local zeroext i1 @sema_decl_if_cond(ptr noundef %0, ptr noundef %1) #0 {
  %3 = alloca i32, align 4
  %4 = alloca ptr, align 8
  %5 = alloca ptr, align 8
  %6 = alloca i32, align 4
  %7 = alloca ptr, align 8
  %8 = alloca ptr, align 8
  %9 = alloca i1, align 1
  %10 = alloca ptr, align 8
  %11 = alloca ptr, align 8
  %12 = alloca ptr, align 8
  %13 = alloca i32, align 4
  %14 = alloca i32, align 4
  %15 = alloca ptr, align 8
  %16 = alloca ptr, align 8
  store ptr %0, ptr %10, align 8
  store ptr %1, ptr %11, align 8
  %17 = load ptr, ptr %11, align 8
  %18 = getelementptr inbounds %struct.Decl_, ptr %17, i32 0, i32 9
  %19 = load ptr, ptr %18, align 8
  store ptr %19, ptr %12, align 8
  %20 = load ptr, ptr %12, align 8
  store ptr %20, ptr %4, align 8
  %21 = load ptr, ptr %4, align 8
  %22 = icmp ne ptr %21, null
  br i1 %22, label %24, label %23

23:                                               ; preds = %2
  store i32 0, ptr %3, align 4
  br label %29

24:                                               ; preds = %2
  %25 = load ptr, ptr %4, align 8
  store ptr %25, ptr %5, align 8
  %26 = load ptr, ptr %5, align 8
  %27 = getelementptr inbounds %struct.VHeader_, ptr %26, i64 -1
  %28 = load i32, ptr %27, align 4
  store i32 %28, ptr %3, align 4
  br label %29

29:                                               ; preds = %24, %23
  %30 = load i32, ptr %3, align 4
  store i32 %30, ptr %13, align 4
  store i32 0, ptr %14, align 4
  br label %31

31:                                               ; preds = %112, %29
  %32 = load i32, ptr %14, align 4
  %33 = load i32, ptr %13, align 4
  %34 = icmp ult i32 %32, %33
  br i1 %34, label %35, label %115

35:                                               ; preds = %31
  %36 = load ptr, ptr %12, align 8
  %37 = load i32, ptr %14, align 4
  %38 = zext i32 %37 to i64
  %39 = getelementptr inbounds ptr, ptr %36, i64 %38
  %40 = load ptr, ptr %39, align 8
  store ptr %40, ptr %15, align 8
  %41 = load ptr, ptr %15, align 8
  %42 = getelementptr inbounds %struct.Attr, ptr %41, i32 0, i32 3
  %43 = load i16, ptr %42, align 8
  %44 = and i16 %43, 255
  %45 = zext i16 %44 to i32
  %46 = icmp ne i32 %45, 11
  br i1 %46, label %47, label %48

47:                                               ; preds = %35
  br label %112

48:                                               ; preds = %35
  %49 = load ptr, ptr %15, align 8
  %50 = getelementptr inbounds %struct.Attr, ptr %49, i32 0, i32 4
  %51 = load ptr, ptr %50, align 8
  store ptr %51, ptr %7, align 8
  %52 = load ptr, ptr %7, align 8
  %53 = icmp ne ptr %52, null
  br i1 %53, label %55, label %54

54:                                               ; preds = %48
  store i32 0, ptr %6, align 4
  br label %60

55:                                               ; preds = %48
  %56 = load ptr, ptr %7, align 8
  store ptr %56, ptr %8, align 8
  %57 = load ptr, ptr %8, align 8
  %58 = getelementptr inbounds %struct.VHeader_, ptr %57, i64 -1
  %59 = load i32, ptr %58, align 4
  store i32 %59, ptr %6, align 4
  br label %60

60:                                               ; preds = %55, %54
  %61 = load i32, ptr %6, align 4
  %62 = icmp ne i32 %61, 1
  br i1 %62, label %63, label %70

63:                                               ; preds = %60
  br label %64

64:                                               ; preds = %63
  %65 = load ptr, ptr %15, align 8
  %66 = getelementptr inbounds %struct.Attr, ptr %65, i32 0, i32 2
  %67 = getelementptr inbounds %union.SourceSpan, ptr %66, i32 0, i32 0
  %68 = load i64, ptr %67, align 8
  call void (i64, ptr, ...) @sema_error_at(i64 %68, ptr noundef @.str)
  store i1 false, ptr %9, align 1
  br label %119

69:                                               ; No predecessors!
  br label %70

70:                                               ; preds = %69, %60
  %71 = load ptr, ptr %15, align 8
  %72 = getelementptr inbounds %struct.Attr, ptr %71, i32 0, i32 4
  %73 = load ptr, ptr %72, align 8
  %74 = getelementptr inbounds ptr, ptr %73, i64 0
  %75 = load ptr, ptr %74, align 8
  store ptr %75, ptr %16, align 8
  %76 = load ptr, ptr %10, align 8
  %77 = load ptr, ptr %16, align 8
  %78 = call zeroext i1 @sema_analyse_ct_expr(ptr noundef %76, ptr noundef %77)
  br i1 %78, label %80, label %79

79:                                               ; preds = %70
  store i1 false, ptr %9, align 1
  br label %119

80:                                               ; preds = %70
  %81 = load ptr, ptr %16, align 8
  %82 = getelementptr inbounds %struct.Expr_, ptr %81, i32 0, i32 0
  %83 = load ptr, ptr %82, align 8
  %84 = getelementptr inbounds %struct.Type_, ptr %83, i32 0, i32 1
  %85 = load ptr, ptr %84, align 8
  %86 = load ptr, ptr @type_bool, align 8
  %87 = icmp ne ptr %85, %86
  br i1 %87, label %88, label %99

88:                                               ; preds = %80
  br label %89

89:                                               ; preds = %88
  %90 = load ptr, ptr %16, align 8
  %91 = getelementptr inbounds %struct.Expr_, ptr %90, i32 0, i32 1
  %92 = load ptr, ptr %16, align 8
  %93 = getelementptr inbounds %struct.Expr_, ptr %92, i32 0, i32 0
  %94 = load ptr, ptr %93, align 8
  %95 = call ptr @type_quoted_error_string(ptr noundef %94)
  %96 = getelementptr inbounds %union.SourceSpan, ptr %91, i32 0, i32 0
  %97 = load i64, ptr %96, align 8
  call void (i64, ptr, ...) @sema_error_at(i64 %97, ptr noundef @.str.1, ptr noundef %95)
  store i1 false, ptr %9, align 1
  br label %119

98:                                               ; No predecessors!
  br label %99

99:                                               ; preds = %98, %80
  %100 = load ptr, ptr %16, align 8
  %101 = getelementptr inbounds %struct.Expr_, ptr %100, i32 0, i32 3
  %102 = getelementptr inbounds %struct.ExprConst, ptr %101, i32 0, i32 1
  %103 = load i8, ptr %102, align 8
  %104 = trunc i8 %103 to i1
  br i1 %104, label %105, label %106

105:                                              ; preds = %99
  store i1 true, ptr %9, align 1
  br label %119

106:                                              ; preds = %99
  %107 = load ptr, ptr %11, align 8
  %108 = getelementptr inbounds %struct.Decl_, ptr %107, i32 0, i32 3
  %109 = load i64, ptr %108, align 8
  %110 = and i64 %109, -128
  %111 = or i64 %110, 13
  store i64 %111, ptr %108, align 8
  store i1 false, ptr %9, align 1
  br label %119

112:                                              ; preds = %47
  %113 = load i32, ptr %14, align 4
  %114 = add i32 %113, 1
  store i32 %114, ptr %14, align 4
  br label %31, !llvm.loop !14

115:                                              ; preds = %31
  br label %116

116:                                              ; preds = %115
  br label %117

117:                                              ; preds = %116
  br label %118

118:                                              ; preds = %117
  call void (ptr, ...) @error_exit(ptr noundef @.str.2, ptr noundef @.str.3, ptr noundef @__func__.sema_decl_if_cond, ptr noundef @.str.4, i32 noundef 1662) #6
  unreachable

119:                                              ; preds = %106, %105, %89, %79, %64
  %120 = load i1, ptr %9, align 1
  ret i1 %120
}