; Function Attrs: nounwind uwtable
define dso_local noundef zeroext i1 @sema_decl_if_cond(ptr noundef %0, ptr nocapture noundef %1) local_unnamed_addr #0 {
  %3 = getelementptr inbounds i8, ptr %1, i64 64
  %4 = load ptr, ptr %3, align 8
  %.not = icmp eq ptr %4, null
  br i1 %.not, label %._crit_edge, label %5

5:                                                ; preds = %2
  %6 = getelementptr inbounds i8, ptr %4, i64 -8
  %7 = load i32, ptr %6, align 4
  %.not36 = icmp eq i32 %7, 0
  br i1 %.not36, label %._crit_edge, label %.lr.ph.preheader

.lr.ph.preheader:                                 ; preds = %5
  %wide.trip.count = zext i32 %7 to i64
  br label %.lr.ph

8:                                                ; preds = %.lr.ph
  %indvars.iv.next = add nuw nsw i64 %indvars.iv, 1
  %exitcond.not = icmp eq i64 %indvars.iv.next, %wide.trip.count
  br i1 %exitcond.not, label %._crit_edge, label %.lr.ph, !llvm.loop !13

.lr.ph:                                           ; preds = %.lr.ph.preheader, %8
  %indvars.iv = phi i64 [ 0, %.lr.ph.preheader ], [ %indvars.iv.next, %8 ]
  %9 = getelementptr inbounds ptr, ptr %4, i64 %indvars.iv
  %10 = load ptr, ptr %9, align 8
  %11 = getelementptr inbounds i8, ptr %10, i64 24
  %12 = load i16, ptr %11, align 8
  %13 = and i16 %12, 255
  %.not31 = icmp eq i16 %13, 11
  br i1 %.not31, label %14, label %8

14:                                               ; preds = %.lr.ph
  %15 = getelementptr inbounds i8, ptr %10, i64 32
  %16 = load ptr, ptr %15, align 8
  %.not32 = icmp eq ptr %16, null
  br i1 %.not32, label %.critedge, label %17

17:                                               ; preds = %14
  %18 = getelementptr inbounds i8, ptr %16, i64 -8
  %19 = load i32, ptr %18, align 4
  %20 = icmp eq i32 %19, 1
  br i1 %20, label %23, label %.critedge

.critedge:                                        ; preds = %14, %17
  %21 = getelementptr inbounds i8, ptr %10, i64 16
  %22 = load i64, ptr %21, align 8
  tail call void (i64, ptr, ...) @sema_error_at(i64 %22, ptr noundef nonnull @.str) #10
  br label %44

23:                                               ; preds = %17
  %24 = load ptr, ptr %16, align 8
  %25 = tail call zeroext i1 @sema_analyse_ct_expr(ptr noundef %0, ptr noundef %24) #10
  br i1 %25, label %26, label %44

26:                                               ; preds = %23
  %27 = load ptr, ptr %24, align 8
  %28 = getelementptr inbounds i8, ptr %27, i64 8
  %29 = load ptr, ptr %28, align 8
  %30 = load ptr, ptr @type_bool, align 8
  %.not34 = icmp eq ptr %29, %30
  br i1 %.not34, label %35, label %31

31:                                               ; preds = %26
  %32 = getelementptr inbounds i8, ptr %24, i64 8
  %33 = tail call ptr @type_quoted_error_string(ptr noundef nonnull %27) #10
  %34 = load i64, ptr %32, align 8
  tail call void (i64, ptr, ...) @sema_error_at(i64 %34, ptr noundef nonnull @.str.1, ptr noundef %33) #10
  br label %44

35:                                               ; preds = %26
  %36 = getelementptr inbounds i8, ptr %24, i64 32
  %37 = load i8, ptr %36, align 8
  %38 = trunc i8 %37 to i1
  br i1 %38, label %44, label %39

39:                                               ; preds = %35
  %40 = getelementptr inbounds i8, ptr %1, i64 24
  %41 = load i64, ptr %40, align 8
  %42 = and i64 %41, -128
  %43 = or disjoint i64 %42, 13
  store i64 %43, ptr %40, align 8
  br label %44

._crit_edge:                                      ; preds = %8, %2, %5
  tail call void (ptr, ...) @error_exit(ptr noundef nonnull @.str.2, ptr noundef nonnull @.str.3, ptr noundef nonnull @__func__.sema_decl_if_cond, ptr noundef nonnull @.str.4, i32 noundef 1662) #11
  unreachable

44:                                               ; preds = %35, %23, %39, %31, %.critedge
  %.028 = phi i1 [ false, %.critedge ], [ false, %31 ], [ false, %39 ], [ false, %23 ], [ true, %35 ]
  ret i1 %.028
}